Exports for discord_game_sdk.dll:
  DiscordCreate
  DiscordVersion
  rust_eh_personality

Exports for NgSocialNet.dll:
  ngsocial_net_add_data_hello_prop_float
  ngsocial_net_add_data_hello_prop_int
  ngsocial_net_add_data_hello_prop_long
  ngsocial_net_add_data_hello_prop_str
  ngsocial_net_add_timer
  ngsocial_net_async_call
  ngsocial_net_close_connect
  ngsocial_net_close_connect_all
  ngsocial_net_del_timer
  ngsocial_net_extendfunc
  ngsocial_net_get_version
  ngsocial_net_http_request
  ngsocial_net_init
  ngsocial_net_jwt_func
  ngsocial_net_local_time
  ngsocial_net_ping
  ngsocial_net_poll
  ngsocial_net_reg_logger
  ngsocial_net_register_on_close_callback
  ngsocial_net_register_on_connect_callback
  ngsocial_net_register_on_enter_background_callback
  ngsocial_net_register_on_enter_foreground_callback
  ngsocial_net_register_on_extendfunc_callback
  ngsocial_net_register_on_recv_callback
  ngsocial_net_register_on_timer_callback
  ngsocial_net_remove_data_hello_prop
  ngsocial_net_reset_data_hello_prop
  ngsocial_net_send_data
  ngsocial_net_send_data_reliable
  ngsocial_net_set_custom_malloc
  ngsocial_net_set_log_type
  ngsocial_net_set_secure
  ngsocial_net_shutdown
  ngsocial_net_start_connect
  ngsocial_net_udp_ping

Exports for NtQRCode.dll:
  ??0NtQRCode@unisdk@@QEAA@AEBV01@@Z
  ??0NtQRCode@unisdk@@QEAA@XZ
  ??1NtQRCode@unisdk@@MEAA@XZ
  ??4NtQRCode@unisdk@@QEAAAEAV01@AEBV01@@Z
  ??_7NtQRCode@unisdk@@6B@
  ?Create@NtQRCode@unisdk@@SAPEAV12@PEAVNtQRCodeObserver@2@@Z
  ?Release@NtQRCode@unisdk@@SAXPEAV12@@Z

Exports for NtUniSdkAppsFlyer.dll:
  NtCreateChannelInstance
  NtDestroyChannelInstance

Exports for NtUniSdkBase.dll:
  ?getDLInst@SdkMgr@NtUniSDK@@SAPEAVINtUniSdkDownloadInterface@2@XZ
  ?getInst@SdkMgr@NtUniSDK@@SAPEAVINtUniSdkGamerInterface@2@XZ
  ?getInstance@SDKManager@NtUniSDK@@SAPEAVIEasePublishGamerInterface@2@XZ
  ?init@SDKManager@NtUniSDK@@SA_NPEBD0@Z
  ?init@SdkMgr@NtUniSDK@@SA_NPEBD0@Z
  ?preInit@SdkMgr@NtUniSDK@@SAXPEBD@Z
  ?setCmdLineParameter@SdkMgr@NtUniSDK@@SAXPEBD@Z
  ?uninit@SDKManager@NtUniSDK@@SAXXZ
  ?uninit@SdkMgr@NtUniSDK@@SAXXZ
  __EP_DirectLogin
  __EP_DirectUserLogin
  __EP_DrpfLog
  __EP_ExtendFunc
  __EP_GetAppChannel
  __EP_GetLoginChannel
  __EP_GetProperty
  __EP_GetSdkVersion
  __EP_GetSocialFriendDetails
  __EP_GetSocialFriendList
  __EP_GetUDID
  __EP_GetUserDetails
  __EP_GuestLogin
  __EP_HasFeature
  __EP_HasLogged
  __EP_InAppPurchase
  __EP_Init
  __EP_Login
  __EP_Logout
  __EP_OpenManager
  __EP_RunLoop
  __EP_SetExtendFuncCallback
  __EP_SetInAppPurchaseCallback
  __EP_SetInitCallback
  __EP_SetLogCallback
  __EP_SetLoginCallback
  __EP_SetLogoutCallback
  __EP_SetProperty
  __EP_SetShareCallback
  __EP_SetSocialFriendDetailsCallback
  __EP_SetSocialFriendListCallback
  __EP_SetUserDetailsCallback
  __EP_Share
  __EP_ShowUserProtocol
  __EP_ShutDown
  __EP_TestAccountLogin
  __EP_TestAliasGuestLogin
  __EP_UploadUserInfoStage
  __NtSdkMgr_DRPF
  __NtSdkMgr_getAuthTypeName
  __NtSdkMgr_getChannel
  __NtSdkMgr_getPayChannelByPid
  __NtSdkMgr_getPlatform
  __NtSdkMgr_getPropInt
  __NtSdkMgr_getPropStr
  __NtSdkMgr_getSDKVersion
  __NtSdkMgr_getUDID
  __NtSdkMgr_hasFeature
  __NtSdkMgr_hasLogin
  __NtSdkMgr_init
  __NtSdkMgr_ntCheckOrder
  __NtSdkMgr_ntCreateQRCode
  __NtSdkMgr_ntExtendFunc
  __NtSdkMgr_ntGameLoginSuccess
  __NtSdkMgr_ntGuestBind
  __NtSdkMgr_ntInit
  __NtSdkMgr_ntJFLog
  __NtSdkMgr_ntLogin
  __NtSdkMgr_ntLogout
  __NtSdkMgr_ntMpaySetOption
  __NtSdkMgr_ntOpenManager
  __NtSdkMgr_ntOpenWebView
  __NtSdkMgr_ntPresentQRCodeScanner
  __NtSdkMgr_ntQueryFriendList
  __NtSdkMgr_ntRegisterProduct
  __NtSdkMgr_ntRunLoop
  __NtSdkMgr_ntShare
  __NtSdkMgr_ntShowCompactView
  __NtSdkMgr_ntShutDown
  __NtSdkMgr_ntTrackCustomEvent
  __NtSdkMgr_setCheckOrderFinishCallback
  __NtSdkMgr_setCmdLineParameter
  __NtSdkMgr_setCreateQRCodeCallback
  __NtSdkMgr_setDownLoadFinishCallback
  __NtSdkMgr_setDownLoadProgressCallback
  __NtSdkMgr_setExtendFuncFinishCallback
  __NtSdkMgr_setInitFinishCallback
  __NtSdkMgr_setLogCallback
  __NtSdkMgr_setLoginFinishCallback
  __NtSdkMgr_setLogoutFinishCallback
  __NtSdkMgr_setPresentQRCodeScannerCallback
  __NtSdkMgr_setPropInt
  __NtSdkMgr_setPropStr
  __NtSdkMgr_setProtocolFinishCallback
  __NtSdkMgr_setQueryAchievementFinishCallback
  __NtSdkMgr_setQueryFriendFinishCallback
  __NtSdkMgr_setShareFinishCallback
  __NtSdkMgr_uninit
  sqlite3_carray_init
  sqlite3_csv_init
  sqlite3_series_init

Exports for NtUniSdkDiscordGame.dll:
  NtCreateChannelInstance
  NtDestroyChannelInstance

Exports for NtUniSdkGMBridge.dll:
  NtCreateChannelInstance
  NtDestroyChannelInstance

Exports for NtUniSdkNgBindPassport.dll:
  NtCreateChannelInstance
  NtDestroyChannelInstance

Exports for NtUniSdkNgConsentManager.dll:
  NtCreateChannelInstance
  NtDestroyChannelInstance

Exports for NtUniSdkNgController.dll:
  NtCreateChannelInstance
  NtDestroyChannelInstance

Exports for NtUniSdkNgGfn.dll:
  NtCreateChannelInstance
  NtDestroyChannelInstance

Exports for NtUniSdkNgWebview.dll:
  NtCreateChannelInstance
  NtDestroyChannelInstance

Exports for NtUniSdkPharos.dll:
  NtCreateChannelInstance
  NtDestroyChannelInstance

Exports for NtUniSdkProtocol.dll:
  NtCreateChannelInstance
  NtDestroyChannelInstance

Exports for NtUniSdkSteam.dll:
  NtCreateChannelInstance
  NtDestroyChannelInstance

Exports for OpenImageDenoise.dll:
  oidnCommitDevice
  oidnCommitFilter
  oidnExecuteFilter
  oidnGetDevice1b
  oidnGetDevice1i
  oidnGetDeviceError
  oidnGetFilter1b
  oidnGetFilter1f
  oidnGetFilter1i
  oidnMapBuffer
  oidnNewBuffer
  oidnNewDevice
  oidnNewFilter
  oidnNewSharedBuffer
  oidnReleaseBuffer
  oidnReleaseDevice
  oidnReleaseFilter
  oidnRemoveFilterData
  oidnRemoveFilterImage
  oidnRetainBuffer
  oidnRetainDevice
  oidnRetainFilter
  oidnSetDevice1b
  oidnSetDevice1i
  oidnSetDeviceErrorFunction
  oidnSetFilter1b
  oidnSetFilter1f
  oidnSetFilter1i
  oidnSetFilterImage
  oidnSetFilterProgressMonitorFunction
  oidnSetSharedFilterData
  oidnSetSharedFilterImage
  oidnUnmapBuffer
  oidnUpdateFilterData

Exports for tbb.dll:
  ??0concurrent_queue_base@internal@tbb@@IEAA@_K@Z
  ??0concurrent_queue_base_v3@internal@tbb@@IEAA@_K@Z
  ??0concurrent_queue_iterator_base@internal@tbb@@IEAA@AEBVconcurrent_queue_base@12@@Z
  ??0concurrent_queue_iterator_base_v3@internal@tbb@@IEAA@AEBVconcurrent_queue_base_v3@12@@Z
  ??0concurrent_queue_iterator_base_v3@internal@tbb@@IEAA@AEBVconcurrent_queue_base_v3@12@_K@Z
  ??0pipeline@tbb@@QEAA@XZ
  ??1captured_exception@tbb@@UEAA@XZ
  ??1concurrent_queue_base@internal@tbb@@MEAA@XZ
  ??1concurrent_queue_base_v3@internal@tbb@@MEAA@XZ
  ??1concurrent_queue_iterator_base@internal@tbb@@IEAA@XZ
  ??1concurrent_queue_iterator_base_v3@internal@tbb@@IEAA@XZ
  ??1concurrent_vector_base_v3@internal@tbb@@IEAA@XZ
  ??1filter@tbb@@UEAA@XZ
  ??1pipeline@tbb@@UEAA@XZ
  ??1task_group_context@tbb@@QEAA@XZ
  ??_7pipeline@tbb@@6B@
  ?NFS_Allocate@internal@tbb@@YAPEAX_K0PEAX@Z
  ?NFS_Free@internal@tbb@@YAXPEAX@Z
  ?NFS_GetLineSize@internal@tbb@@YA_KXZ
  ?acquire@scoped_lock@queuing_mutex@tbb@@QEAAXAEAV23@@Z
  ?acquire@scoped_lock@queuing_rw_mutex@tbb@@QEAAXAEAV23@_N@Z
  ?active_value@global_control@interface9@tbb@@CA_KH@Z
  ?add_filter@pipeline@tbb@@QEAAXAEAVfilter@2@@Z
  ?advance@concurrent_queue_iterator_base@internal@tbb@@IEAAXXZ
  ?advance@concurrent_queue_iterator_base_v3@internal@tbb@@IEAAXXZ
  ?allocate@allocate_additional_child_of_proxy@internal@tbb@@QEBAAEAVtask@3@_K@Z
  ?allocate@allocate_child_proxy@internal@tbb@@QEBAAEAVtask@3@_K@Z
  ?allocate@allocate_continuation_proxy@internal@tbb@@QEBAAEAVtask@3@_K@Z
  ?allocate@allocate_root_proxy@internal@tbb@@SAAEAVtask@3@_K@Z
  ?allocate@allocate_root_with_context_proxy@internal@tbb@@QEBAAEAVtask@3@_K@Z
  ?allocate_closure_v3@internal@tbb@@YAPEAX_K@Z
  ?allocate_via_handler_v3@internal@tbb@@YAPEAX_K@Z
  ?assertion_failure@tbb@@YAXPEBDH00@Z
  ?assign@concurrent_queue_base_v3@internal@tbb@@IEAAXAEBV123@@Z
  ?assign@concurrent_queue_iterator_base@internal@tbb@@IEAAXAEBV123@@Z
  ?assign@concurrent_queue_iterator_base_v3@internal@tbb@@IEAAXAEBV123@@Z
  ?call_itt_notify_v5@internal@tbb@@YAXHPEAX@Z
  ?cancel_group_execution@task_group_context@tbb@@QEAA_NXZ
  ?capture_fp_settings@task_group_context@tbb@@QEAAXXZ
  ?change_group@task@tbb@@QEAAXAEAVtask_group_context@2@@Z
  ?clear@captured_exception@tbb@@QEAAXXZ
  ?clear@pipeline@tbb@@QEAAXXZ
  ?deallocate_via_handler_v3@internal@tbb@@YAXPEAX@Z
  ?default_num_threads@task_scheduler_init@tbb@@SAHXZ
  ?destroy@captured_exception@tbb@@UEAAXXZ
  ?destroy@task@tbb@@QEAAXAEAV12@@Z
  ?destroy@task_base@internal@interface5@tbb@@SAXAEAVtask@4@@Z
  ?detach@tbb_thread_v3@internal@tbb@@QEAAXXZ
  ?downgrade_to_reader@scoped_lock@queuing_rw_mutex@tbb@@QEAA_NXZ
  ?free@allocate_additional_child_of_proxy@internal@tbb@@QEBAXAEAVtask@3@@Z
  ?free@allocate_child_proxy@internal@tbb@@QEBAXAEAVtask@3@@Z
  ?free@allocate_continuation_proxy@internal@tbb@@QEBAXAEAVtask@3@@Z
  ?free@allocate_root_proxy@internal@tbb@@SAXAEAVtask@3@@Z
  ?free@allocate_root_with_context_proxy@internal@tbb@@QEBAXAEAVtask@3@@Z
  ?free_closure_v3@internal@tbb@@YAXPEAX@Z
  ?get_initial_auto_partitioner_divisor@internal@tbb@@YA_KXZ
  ?handle_perror@internal@tbb@@YAXHPEBD@Z
  ?hardware_concurrency@tbb_thread_v3@internal@tbb@@SAIXZ
  ?init@task_group_context@tbb@@IEAAXXZ
  ?initialize@task_scheduler_init@tbb@@QEAAXH@Z
  ?initialize@task_scheduler_init@tbb@@QEAAXH_K@Z
  ?inject_token@pipeline@tbb@@AEAAXAEAVtask@2@@Z
  ?internal_abort@concurrent_queue_base_v3@internal@tbb@@IEAAXXZ
  ?internal_acquire@scoped_lock@mutex@tbb@@AEAAXAEAV23@@Z
  ?internal_acquire@scoped_lock@recursive_mutex@tbb@@AEAAXAEAV23@@Z
  ?internal_acquire@scoped_lock@spin_mutex@tbb@@AEAAXAEAV23@@Z
  ?internal_acquire_reader@spin_rw_mutex@tbb@@CAXPEAV12@@Z
  ?internal_acquire_reader@spin_rw_mutex_v3@tbb@@AEAAXXZ
  ?internal_acquire_reader@x86_rtm_rw_mutex@internal@interface8@tbb@@AEAAXAEAVscoped_lock@1234@_N@Z
  ?internal_acquire_writer@spin_rw_mutex@tbb@@CA_NPEAV12@@Z
  ?internal_acquire_writer@spin_rw_mutex_v3@tbb@@AEAA_NXZ
  ?internal_acquire_writer@x86_rtm_rw_mutex@internal@interface8@tbb@@AEAAXAEAVscoped_lock@1234@_N@Z
  ?internal_assign@concurrent_vector_base@internal@tbb@@IEAAXAEBV123@_KP6AXPEAX1@ZP6AX2PEBX1@Z5@Z
  ?internal_assign@concurrent_vector_base_v3@internal@tbb@@IEAAXAEBV123@_KP6AXPEAX1@ZP6AX2PEBX1@Z5@Z
  ?internal_attach@task_arena_base@internal@interface7@tbb@@IEAAXXZ
  ?internal_blocking_terminate@task_scheduler_init@tbb@@AEAA_N_N@Z
  ?internal_capacity@concurrent_vector_base@internal@tbb@@IEBA_KXZ
  ?internal_capacity@concurrent_vector_base_v3@internal@tbb@@IEBA_KXZ
  ?internal_clear@concurrent_vector_base@internal@tbb@@IEAAXP6AXPEAX_K@Z_N@Z
  ?internal_clear@concurrent_vector_base_v3@internal@tbb@@IEAA_KP6AXPEAX_K@Z@Z
  ?internal_compact@concurrent_vector_base_v3@internal@tbb@@IEAAPEAX_KPEAXP6AX10@ZP6AX1PEBX0@Z@Z
  ?internal_condition_variable_notify_all@internal@interface5@tbb@@YAXAEATcondvar_impl_t@123@@Z
  ?internal_condition_variable_notify_one@internal@interface5@tbb@@YAXAEATcondvar_impl_t@123@@Z
  ?internal_condition_variable_wait@internal@interface5@tbb@@YA_NAEATcondvar_impl_t@123@PEAVmutex@3@PEBVinterval_t@tick_count@3@@Z
  ?internal_construct@critical_section_v4@internal@tbb@@QEAAXXZ
  ?internal_construct@mutex@tbb@@AEAAXXZ
  ?internal_construct@queuing_mutex@tbb@@QEAAXXZ
  ?internal_construct@queuing_rw_mutex@tbb@@QEAAXXZ
  ?internal_construct@reader_writer_lock@interface5@tbb@@AEAAXXZ
  ?internal_construct@recursive_mutex@tbb@@AEAAXXZ
  ?internal_construct@scoped_lock@reader_writer_lock@interface5@tbb@@AEAAXAEAV234@@Z
  ?internal_construct@scoped_lock_read@reader_writer_lock@interface5@tbb@@AEAAXAEAV234@@Z
  ?internal_construct@spin_mutex@tbb@@QEAAXXZ
  ?internal_construct@spin_rw_mutex_v3@tbb@@AEAAXXZ
  ?internal_construct@x86_rtm_rw_mutex@internal@interface8@tbb@@AEAAXXZ
  ?internal_copy@concurrent_vector_base@internal@tbb@@IEAAXAEBV123@_KP6AXPEAXPEBX1@Z@Z
  ?internal_copy@concurrent_vector_base_v3@internal@tbb@@IEAAXAEBV123@_KP6AXPEAXPEBX1@Z@Z
  ?internal_create@global_control@interface9@tbb@@AEAAXXZ
  ?internal_current_slot@task_arena_base@internal@interface7@tbb@@KAHXZ
  ?internal_decrement_ref_count@task@tbb@@AEAA_JXZ
  ?internal_destroy@global_control@interface9@tbb@@AEAAXXZ
  ?internal_destroy@mutex@tbb@@AEAAXXZ
  ?internal_destroy@reader_writer_lock@interface5@tbb@@AEAAXXZ
  ?internal_destroy@recursive_mutex@tbb@@AEAAXXZ
  ?internal_destroy@scoped_lock@reader_writer_lock@interface5@tbb@@AEAAXXZ
  ?internal_destroy@scoped_lock_read@reader_writer_lock@interface5@tbb@@AEAAXXZ
  ?internal_destroy_condition_variable@internal@interface5@tbb@@YAXAEATcondvar_impl_t@123@@Z
  ?internal_downgrade@spin_rw_mutex@tbb@@CAXPEAV12@@Z
  ?internal_downgrade@spin_rw_mutex_v3@tbb@@AEAAXXZ
  ?internal_downgrade@x86_rtm_rw_mutex@internal@interface8@tbb@@AEAA_NAEAVscoped_lock@1234@@Z
  ?internal_empty@concurrent_queue_base_v3@internal@tbb@@IEBA_NXZ
  ?internal_enqueue@task_arena_base@internal@interface7@tbb@@IEBAXAEAVtask@4@_J@Z
  ?internal_execute@task_arena_base@internal@interface7@tbb@@IEBAXAEAVdelegate_base@234@@Z
  ?internal_finish_clear@concurrent_queue_base_v3@internal@tbb@@IEAAXXZ
  ?internal_grow_by@concurrent_vector_base@internal@tbb@@IEAA_K_K0P6AXPEAX0@Z@Z
  ?internal_grow_by@concurrent_vector_base_v3@internal@tbb@@IEAA_K_K0P6AXPEAXPEBX0@Z2@Z
  ?internal_grow_predicate@hash_map_segment_base@internal@tbb@@QEBA_NXZ
  ?internal_grow_to_at_least@concurrent_vector_base@internal@tbb@@IEAAX_K0P6AXPEAX0@Z@Z
  ?internal_grow_to_at_least@concurrent_vector_base_v3@internal@tbb@@IEAAX_K0P6AXPEAXPEBX0@Z2@Z
  ?internal_grow_to_at_least_with_result@concurrent_vector_base_v3@internal@tbb@@IEAA_K_K0P6AXPEAXPEBX0@Z2@Z
  ?internal_initialize@task_arena_base@internal@interface7@tbb@@IEAAXXZ
  ?internal_initialize_condition_variable@internal@interface5@tbb@@YAXAEATcondvar_impl_t@123@@Z
  ?internal_itt_releasing@spin_rw_mutex@tbb@@CAXPEAV12@@Z
  ?internal_max_concurrency@task_arena_base@internal@interface7@tbb@@KAHPEBVtask_arena@34@@Z
  ?internal_pop@concurrent_queue_base@internal@tbb@@IEAAXPEAX@Z
  ?internal_pop@concurrent_queue_base_v3@internal@tbb@@IEAAXPEAX@Z
  ?internal_pop_if_present@concurrent_queue_base@internal@tbb@@IEAA_NPEAX@Z
  ?internal_pop_if_present@concurrent_queue_base_v3@internal@tbb@@IEAA_NPEAX@Z
  ?internal_push@concurrent_queue_base@internal@tbb@@IEAAXPEBX@Z
  ?internal_push@concurrent_queue_base_v3@internal@tbb@@IEAAXPEBX@Z
  ?internal_push_back@concurrent_vector_base@internal@tbb@@IEAAPEAX_KAEA_K@Z
  ?internal_push_back@concurrent_vector_base_v3@internal@tbb@@IEAAPEAX_KAEA_K@Z
  ?internal_push_if_not_full@concurrent_queue_base@internal@tbb@@IEAA_NPEBX@Z
  ?internal_push_if_not_full@concurrent_queue_base_v3@internal@tbb@@IEAA_NPEBX@Z
  ?internal_push_move@concurrent_queue_base_v8@internal@tbb@@IEAAXPEBX@Z
  ?internal_push_move_if_not_full@concurrent_queue_base_v8@internal@tbb@@IEAA_NPEBX@Z
  ?internal_release@scoped_lock@mutex@tbb@@AEAAXXZ
  ?internal_release@scoped_lock@recursive_mutex@tbb@@AEAAXXZ
  ?internal_release@scoped_lock@spin_mutex@tbb@@AEAAXXZ
  ?internal_release@x86_rtm_rw_mutex@internal@interface8@tbb@@AEAAXAEAVscoped_lock@1234@@Z
  ?internal_release_reader@spin_rw_mutex@tbb@@CAXPEAV12@@Z
  ?internal_release_reader@spin_rw_mutex_v3@tbb@@AEAAXXZ
  ?internal_release_writer@spin_rw_mutex@tbb@@CAXPEAV12@@Z
  ?internal_release_writer@spin_rw_mutex_v3@tbb@@AEAAXXZ
  ?internal_reserve@concurrent_vector_base@internal@tbb@@IEAAX_K00@Z
  ?internal_reserve@concurrent_vector_base_v3@internal@tbb@@IEAAX_K00@Z
  ?internal_resize@concurrent_vector_base_v3@internal@tbb@@IEAAX_K00PEBXP6AXPEAX0@ZP6AX210@Z@Z
  ?internal_set_capacity@concurrent_queue_base@internal@tbb@@IEAAX_J_K@Z
  ?internal_set_capacity@concurrent_queue_base_v3@internal@tbb@@IEAAX_J_K@Z
  ?internal_set_ref_count@task@tbb@@AEAAXH@Z
  ?internal_size@concurrent_queue_base@internal@tbb@@IEBA_JXZ
  ?internal_size@concurrent_queue_base_v3@internal@tbb@@IEBA_JXZ
  ?internal_start@tbb_thread_v3@internal@tbb@@AEAAXP6AIPEAX@Z0@Z
  ?internal_swap@concurrent_vector_base_v3@internal@tbb@@IEAAXAEAV123@@Z
  ?internal_terminate@task_arena_base@internal@interface7@tbb@@IEAAXXZ
  ?internal_throw_exception@concurrent_queue_base_v3@internal@tbb@@IEBAXXZ
  ?internal_throw_exception@concurrent_vector_base_v3@internal@tbb@@IEBAX_K@Z
  ?internal_try_acquire@scoped_lock@mutex@tbb@@AEAA_NAEAV23@@Z
  ?internal_try_acquire@scoped_lock@recursive_mutex@tbb@@AEAA_NAEAV23@@Z
  ?internal_try_acquire@scoped_lock@spin_mutex@tbb@@AEAA_NAEAV23@@Z
  ?internal_try_acquire_reader@spin_rw_mutex@tbb@@CA_NPEAV12@@Z
  ?internal_try_acquire_reader@spin_rw_mutex_v3@tbb@@AEAA_NXZ
  ?internal_try_acquire_writer@spin_rw_mutex@tbb@@CA_NPEAV12@@Z
  ?internal_try_acquire_writer@spin_rw_mutex_v3@tbb@@AEAA_NXZ
  ?internal_try_acquire_writer@x86_rtm_rw_mutex@internal@interface8@tbb@@AEAA_NAEAVscoped_lock@1234@@Z
  ?internal_upgrade@spin_rw_mutex@tbb@@CA_NPEAV12@@Z
  ?internal_upgrade@spin_rw_mutex_v3@tbb@@AEAA_NXZ
  ?internal_upgrade@x86_rtm_rw_mutex@internal@interface8@tbb@@AEAA_NAEAVscoped_lock@1234@@Z
  ?internal_wait@task_arena_base@internal@interface7@tbb@@IEBAXXZ
  ?is_group_execution_cancelled@task_group_context@tbb@@QEBA_NXZ
  ?is_malloc_used_v3@internal@tbb@@YA_NXZ
  ?is_owned_by_current_thread@task@tbb@@QEBA_NXZ
  ?isolate_within_arena@internal@interface7@tbb@@YAXAEAVdelegate_base@123@_J@Z
  ?itt_load_pointer_v3@internal@tbb@@YAPEAXPEBX@Z
  ?itt_load_pointer_with_acquire_v3@internal@tbb@@YAPEAXPEBX@Z
  ?itt_make_task_group_v7@internal@tbb@@YAXW4itt_domain_enum@12@PEAX_K12W4string_index@12@@Z
  ?itt_metadata_str_add_v7@internal@tbb@@YAXW4itt_domain_enum@12@PEAX_KW4string_index@12@PEBD@Z
  ?itt_region_begin_v9@internal@tbb@@YAXW4itt_domain_enum@12@PEAX_K12W4string_index@12@@Z
  ?itt_region_end_v9@internal@tbb@@YAXW4itt_domain_enum@12@PEAX_K@Z
  ?itt_relation_add_v7@internal@tbb@@YAXW4itt_domain_enum@12@PEAX_KW4itt_relation@12@12@Z
  ?itt_set_sync_name_v3@internal@tbb@@YAXPEAXPEB_W@Z
  ?itt_store_pointer_with_release_v3@internal@tbb@@YAXPEAX0@Z
  ?itt_task_begin_v7@internal@tbb@@YAXW4itt_domain_enum@12@PEAX_K12W4string_index@12@@Z
  ?itt_task_end_v7@internal@tbb@@YAXW4itt_domain_enum@12@@Z
  ?join@tbb_thread_v3@internal@tbb@@QEAAXXZ
  ?lock@reader_writer_lock@interface5@tbb@@QEAAXXZ
  ?lock_read@reader_writer_lock@interface5@tbb@@QEAAXXZ
  ?move@captured_exception@tbb@@UEAAPEAV12@XZ
  ?move_content@concurrent_queue_base_v8@internal@tbb@@IEAAXAEAV123@@Z
  ?move_v3@internal@tbb@@YAXAEAVtbb_thread_v3@12@0@Z
  ?name@captured_exception@tbb@@UEBAPEBDXZ
  ?note_affinity@task@tbb@@UEAAXG@Z
  ?observe@task_scheduler_observer_v3@internal@tbb@@QEAAX_N@Z
  ?priority@task_group_context@tbb@@QEBA?AW4priority_t@2@XZ
  ?process_item@thread_bound_filter@tbb@@QEAA?AW4result_type@12@XZ
  ?register_pending_exception@task_group_context@tbb@@QEAAXXZ
  ?release@scoped_lock@queuing_mutex@tbb@@QEAAXXZ
  ?release@scoped_lock@queuing_rw_mutex@tbb@@QEAAXXZ
  ?reset@task_group_context@tbb@@QEAAXXZ
  ?resize@affinity_partitioner_base_v3@internal@tbb@@AEAAXI@Z
  ?run@pipeline@tbb@@QEAAX_K@Z
  ?run@pipeline@tbb@@QEAAX_KAEAVtask_group_context@2@@Z
  ?runtime_warning@internal@tbb@@YAXPEBDZZ
  ?self@task@tbb@@SAAEAV12@XZ
  ?set@captured_exception@tbb@@QEAAXPEBD0@Z
  ?set_assertion_handler@tbb@@YAP6AXPEBDH00@ZP6AX0H00@Z@Z
  ?set_end_of_input@filter@tbb@@IEAAXXZ
  ?set_priority@task_group_context@tbb@@QEAAXW4priority_t@2@@Z
  ?spawn_and_wait_for_all@task@tbb@@QEAAXAEAVtask_list@2@@Z
  ?terminate@task_scheduler_init@tbb@@QEAAXXZ
  ?thread_get_id_v3@internal@tbb@@YA?AVid@tbb_thread_v3@12@XZ
  ?thread_sleep_v3@internal@tbb@@YAXAEBVinterval_t@tick_count@2@@Z
  ?thread_yield_v3@internal@tbb@@YAXXZ
  ?throw_bad_last_alloc_exception_v4@internal@tbb@@YAXXZ
  ?throw_exception_v4@internal@tbb@@YAXW4exception_id@12@@Z
  ?try_acquire@scoped_lock@queuing_mutex@tbb@@QEAA_NAEAV23@@Z
  ?try_acquire@scoped_lock@queuing_rw_mutex@tbb@@QEAA_NAEAV23@_N@Z
  ?try_lock@reader_writer_lock@interface5@tbb@@QEAA_NXZ
  ?try_lock_read@reader_writer_lock@interface5@tbb@@QEAA_NXZ
  ?try_process_item@thread_bound_filter@tbb@@QEAA?AW4result_type@12@XZ
  ?unlock@reader_writer_lock@interface5@tbb@@QEAAXXZ
  ?upgrade_to_writer@scoped_lock@queuing_rw_mutex@tbb@@QEAA_NXZ
  ?what@bad_last_alloc@tbb@@UEBAPEBDXZ
  ?what@captured_exception@tbb@@UEBAPEBDXZ
  ?what@improper_lock@tbb@@UEBAPEBDXZ
  ?what@invalid_multiple_scheduling@tbb@@UEBAPEBDXZ
  ?what@missing_wait@tbb@@UEBAPEBDXZ
  ?what@user_abort@tbb@@UEBAPEBDXZ
  TBB_runtime_interface_version
  __TBB_machine_cmpswp1
  __TBB_machine_cmpswp2
  __TBB_machine_fetchadd1
  __TBB_machine_fetchadd2
  __TBB_machine_fetchstore1
  __TBB_machine_fetchstore2
  __TBB_machine_is_in_transaction
  __TBB_machine_pause
  __TBB_machine_try_lock_elided
  __TBB_machine_unlock_elided

Exports for tbb12.dll:
  ?abort_bounded_queue_monitors@r1@detail@tbb@@YAXPEAVconcurrent_monitor@123@@Z
  ?acquire@r1@detail@tbb@@YAXAEAVqueuing_rw_mutex@d1@23@AEAVscoped_lock@4523@_N@Z
  ?acquire@r1@detail@tbb@@YAXAEAVrtm_mutex@d1@23@AEAVscoped_lock@4523@_N@Z
  ?acquire_reader@r1@detail@tbb@@YAXAEAVrtm_rw_mutex@d1@23@AEAVscoped_lock@4523@_N@Z
  ?acquire_writer@r1@detail@tbb@@YAXAEAVrtm_rw_mutex@d1@23@AEAVscoped_lock@4523@_N@Z
  ?allocate@r1@detail@tbb@@YAPEAXAEAPEAVsmall_object_pool@d1@23@_K@Z
  ?allocate@r1@detail@tbb@@YAPEAXAEAPEAVsmall_object_pool@d1@23@_KAEBUexecution_data@523@@Z
  ?allocate_bounded_queue_rep@r1@detail@tbb@@YAPEAE_K@Z
  ?allocate_memory@r1@detail@tbb@@YAPEAX_K@Z
  ?assertion_failure@r1@detail@tbb@@YAXPEBDH00@Z
  ?attach@r1@detail@tbb@@YA_NAEAVtask_arena_base@d1@23@@Z
  ?cache_aligned_allocate@r1@detail@tbb@@YAPEAX_K@Z
  ?cache_aligned_deallocate@r1@detail@tbb@@YAXPEAX@Z
  ?cache_line_size@r1@detail@tbb@@YA_KXZ
  ?call_itt_notify@r1@detail@tbb@@YAXHPEAX@Z
  ?cancel_group_execution@r1@detail@tbb@@YA_NAEAVtask_group_context@d1@23@@Z
  ?capture_fp_settings@r1@detail@tbb@@YAXAEAVtask_group_context@d1@23@@Z
  ?constraints_default_concurrency@r1@detail@tbb@@YAHAEBUconstraints@d1@23@_J@Z
  ?constraints_threads_per_core@r1@detail@tbb@@YAHAEBUconstraints@d1@23@_J@Z
  ?construct@r1@detail@tbb@@YAXAEAVqueuing_rw_mutex@d1@23@@Z
  ?core_type_count@r1@detail@tbb@@YAI_J@Z
  ?create@r1@detail@tbb@@YAXAEAVglobal_control@d1@23@@Z
  ?create_itt_sync@r1@detail@tbb@@YAXPEAXPEB_W1@Z
  ?current_context@r1@detail@tbb@@YAPEAVtask_group_context@d1@23@XZ
  ?current_suspend_point@r1@detail@tbb@@YAPEAUsuspend_point_type@123@XZ
  ?deallocate@r1@detail@tbb@@YAXAEAVsmall_object_pool@d1@23@PEAX_K@Z
  ?deallocate@r1@detail@tbb@@YAXAEAVsmall_object_pool@d1@23@PEAX_KAEBUexecution_data@523@@Z
  ?deallocate_bounded_queue_rep@r1@detail@tbb@@YAXPEAE_K@Z
  ?deallocate_memory@r1@detail@tbb@@YAXPEAX@Z
  ?destroy@r1@detail@tbb@@YAXAEAVglobal_control@d1@23@@Z
  ?destroy@r1@detail@tbb@@YAXAEAVtask_group_context@d1@23@@Z
  ?downgrade@r1@detail@tbb@@YA_NAEAVscoped_lock@rtm_rw_mutex@d1@23@@Z
  ?downgrade_to_reader@r1@detail@tbb@@YA_NAEAVscoped_lock@queuing_rw_mutex@d1@23@@Z
  ?enqueue@r1@detail@tbb@@YAXAEAVtask@d1@23@PEAVtask_arena_base@523@@Z
  ?execute@r1@detail@tbb@@YAXAEAVtask_arena_base@d1@23@AEAVdelegate_base@523@@Z
  ?execute_and_wait@r1@detail@tbb@@YAXAEAVtask@d1@23@AEAVtask_group_context@523@AEAVwait_context@523@1@Z
  ?execution_slot@r1@detail@tbb@@YAGPEBUexecution_data@d1@23@@Z
  ?fill_core_type_indices@r1@detail@tbb@@YAXPEAH_J@Z
  ?fill_numa_indices@r1@detail@tbb@@YAXPEAH@Z
  ?finalize@r1@detail@tbb@@YA_NAEAVtask_scheduler_handle@d1@23@_J@Z
  ?get@r1@detail@tbb@@YAXAEAVtask_scheduler_handle@d1@23@@Z
  ?global_control_active_value@r1@detail@tbb@@YA_KH@Z
  ?initialize@r1@detail@tbb@@YAXAEAVtask_arena_base@d1@23@@Z
  ?initialize@r1@detail@tbb@@YAXAEAVtask_group_context@d1@23@@Z
  ?is_group_execution_cancelled@r1@detail@tbb@@YA_NAEAVtask_group_context@d1@23@@Z
  ?is_tbbmalloc_used@r1@detail@tbb@@YA_NXZ
  ?isolate_within_arena@r1@detail@tbb@@YAXAEAVdelegate_base@d1@23@_J@Z
  ?itt_make_task_group@r1@detail@tbb@@YAXW4itt_domain_enum@d1@23@PEAX_K12W4string_resource_index@d0@23@@Z
  ?itt_metadata_ptr_add@r1@detail@tbb@@YAXW4itt_domain_enum@d1@23@PEAX_KW4string_resource_index@d0@23@1@Z
  ?itt_metadata_str_add@r1@detail@tbb@@YAXW4itt_domain_enum@d1@23@PEAX_KW4string_resource_index@d0@23@PEBD@Z
  ?itt_region_begin@r1@detail@tbb@@YAXW4itt_domain_enum@d1@23@PEAX_K12W4string_resource_index@d0@23@@Z
  ?itt_region_end@r1@detail@tbb@@YAXW4itt_domain_enum@d1@23@PEAX_K@Z
  ?itt_relation_add@r1@detail@tbb@@YAXW4itt_domain_enum@d1@23@PEAX_KW4itt_relation@d0@23@12@Z
  ?itt_set_sync_name@r1@detail@tbb@@YAXPEAXPEB_W@Z
  ?itt_task_begin@r1@detail@tbb@@YAXW4itt_domain_enum@d1@23@PEAX_K12W4string_resource_index@d0@23@@Z
  ?itt_task_end@r1@detail@tbb@@YAXW4itt_domain_enum@d1@23@@Z
  ?max_concurrency@r1@detail@tbb@@YAHPEBVtask_arena_base@d1@23@@Z
  ?notify_bounded_queue_monitor@r1@detail@tbb@@YAXPEAVconcurrent_monitor@123@_K1@Z
  ?notify_waiters@r1@detail@tbb@@YAX_K@Z
  ?numa_default_concurrency@r1@detail@tbb@@YAHH@Z
  ?numa_node_count@r1@detail@tbb@@YAIXZ
  ?observe@r1@detail@tbb@@YAXAEAVtask_scheduler_observer@d1@23@_N@Z
  ?parallel_pipeline@r1@detail@tbb@@YAXAEAVtask_group_context@d1@23@_KAEBVfilter_node@523@@Z
  ?release@r1@detail@tbb@@YAXAEAVscoped_lock@queuing_rw_mutex@d1@23@@Z
  ?release@r1@detail@tbb@@YAXAEAVscoped_lock@rtm_mutex@d1@23@@Z
  ?release@r1@detail@tbb@@YAXAEAVscoped_lock@rtm_rw_mutex@d1@23@@Z
  ?reset@r1@detail@tbb@@YAXAEAVtask_group_context@d1@23@@Z
  ?resume@r1@detail@tbb@@YAXPEAUsuspend_point_type@123@@Z
  ?set_end_of_input@r1@detail@tbb@@YAXAEAVbase_filter@d1@23@@Z
  ?spawn@r1@detail@tbb@@YAXAEAVtask@d1@23@AEAVtask_group_context@523@@Z
  ?spawn@r1@detail@tbb@@YAXAEAVtask@d1@23@AEAVtask_group_context@523@G@Z
  ?submit@r1@detail@tbb@@YAXAEAVtask@d1@23@AEAVtask_group_context@523@PEAVarena@123@_K@Z
  ?suspend@r1@detail@tbb@@YAXP6AXPEAXPEAUsuspend_point_type@123@@Z0@Z
  ?terminate@r1@detail@tbb@@YAXAEAVtask_arena_base@d1@23@@Z
  ?throw_exception@r1@detail@tbb@@YAXW4exception_id@d0@23@@Z
  ?try_acquire@r1@detail@tbb@@YA_NAEAVqueuing_rw_mutex@d1@23@AEAVscoped_lock@4523@_N@Z
  ?try_acquire@r1@detail@tbb@@YA_NAEAVrtm_mutex@d1@23@AEAVscoped_lock@4523@@Z
  ?try_acquire_reader@r1@detail@tbb@@YA_NAEAVrtm_rw_mutex@d1@23@AEAVscoped_lock@4523@@Z
  ?try_acquire_writer@r1@detail@tbb@@YA_NAEAVrtm_rw_mutex@d1@23@AEAVscoped_lock@4523@@Z
  ?upgrade@r1@detail@tbb@@YA_NAEAVscoped_lock@rtm_rw_mutex@d1@23@@Z
  ?upgrade_to_writer@r1@detail@tbb@@YA_NAEAVscoped_lock@queuing_rw_mutex@d1@23@@Z
  ?wait@r1@detail@tbb@@YAXAEAVtask_arena_base@d1@23@@Z
  ?wait@r1@detail@tbb@@YAXAEAVwait_context@d1@23@AEAVtask_group_context@523@@Z
  ?wait_bounded_queue_monitor@r1@detail@tbb@@YAXPEAVconcurrent_monitor@123@_K_JAEAVdelegate_base@d1@23@@Z
  ?what@bad_last_alloc@r1@detail@tbb@@UEBAPEBDXZ
  ?what@missing_wait@r1@detail@tbb@@UEBAPEBDXZ
  ?what@user_abort@r1@detail@tbb@@UEBAPEBDXZ
  TBB_runtime_interface_version
  TBB_runtime_version

Exports for tbbmalloc.dll:
  ?pool_aligned_malloc@rml@@YAPEAXPEAVMemoryPool@1@_K1@Z
  ?pool_aligned_realloc@rml@@YAPEAXPEAVMemoryPool@1@PEAX_K2@Z
  ?pool_create@rml@@YAPEAVMemoryPool@1@_JPEBUMemPoolPolicy@1@@Z
  ?pool_create_v1@rml@@YA?AW4MemPoolError@1@_JPEBUMemPoolPolicy@1@PEAPEAVMemoryPool@1@@Z
  ?pool_destroy@rml@@YA_NPEAVMemoryPool@1@@Z
  ?pool_free@rml@@YA_NPEAVMemoryPool@1@PEAX@Z
  ?pool_identify@rml@@YAPEAVMemoryPool@1@PEAX@Z
  ?pool_malloc@rml@@YAPEAXPEAVMemoryPool@1@_K@Z
  ?pool_msize@rml@@YA_KPEAVMemoryPool@1@PEAX@Z
  ?pool_realloc@rml@@YAPEAXPEAVMemoryPool@1@PEAX_K@Z
  ?pool_reset@rml@@YA_NPEAVMemoryPool@1@@Z
  __TBB_malloc_safer_aligned_msize
  __TBB_malloc_safer_aligned_realloc
  __TBB_malloc_safer_free
  __TBB_malloc_safer_msize
  __TBB_malloc_safer_realloc
  scalable_aligned_free
  scalable_aligned_malloc
  scalable_aligned_realloc
  scalable_allocation_command
  scalable_allocation_mode
  scalable_calloc
  scalable_free
  scalable_malloc
  scalable_msize
  scalable_posix_memalign
  scalable_realloc

Exports for webview_support_helper.dll:
  CheckMpayWebviewHelperSupportVersion
  CreateMpayWebviewHelperSupport
  MpayWebviewSupport_ClearBrowserData
  MpayWebviewSupport_CloseCurrentWebview
  MpayWebviewSupport_CreateWebviewAsChild
  MpayWebviewSupport_Destroy
  MpayWebviewSupport_ExecuteJavaScript
  MpayWebviewSupport_Finalize
  MpayWebviewSupport_GoBack
  MpayWebviewSupport_GoForward
  MpayWebviewSupport_Initialize
  MpayWebviewSupport_LoadUrl
  MpayWebviewSupport_RegisterCallbacks
  MpayWebviewSupport_RegisterJsBridgeHandlers
  MpayWebviewSupport_Reload
  MpayWebviewSupport_Resize
  MpayWebviewSupport_SetLogHook
  MpayWebviewSupport_SetMWSConfigsExtensionJson
  MpayWebviewSupport_StopLoad

